
secret:     file format elf64-x86-64


Disassembly of section .text:

00000000004000b0 <_start>:
  4000b0:	b8 01 00 00 00       	mov    eax,0x1
  4000b5:	bf 01 00 00 00       	mov    edi,0x1
  4000ba:	48 be 34 03 60 00 00 	movabs rsi,0x600334
  4000c1:	00 00 00 
  4000c4:	ba 12 00 00 00       	mov    edx,0x12
  4000c9:	0f 05                	syscall 
  4000cb:	ba ff 00 00 00       	mov    edx,0xff
  4000d0:	48 be 50 03 60 00 00 	movabs rsi,0x600350
  4000d7:	00 00 00 
  4000da:	bf 00 00 00 00       	mov    edi,0x0
  4000df:	b8 00 00 00 00       	mov    eax,0x0
  4000e4:	0f 05                	syscall 
  4000e6:	eb c8                	jmp    4000b0 <_start>

00000000004000e8 <quit>:
  4000e8:	b8 3c 00 00 00       	mov    eax,0x3c
  4000ed:	48 31 ff             	xor    rdi,rdi
  4000f0:	0f 05                	syscall 
  4000f2:	c3                   	ret    

00000000004000f3 <unlock>:
  4000f3:	b8 01 00 00 00       	mov    eax,0x1
  4000f8:	bf 01 00 00 00       	mov    edi,0x1
  4000fd:	68 66 6c 00 00       	push   0x6c66
  400102:	48 89 e6             	mov    rsi,rsp
  400105:	ba 02 00 00 00       	mov    edx,0x2
  40010a:	0f 05                	syscall 
  40010c:	b8 01 00 00 00       	mov    eax,0x1
  400111:	bf 01 00 00 00       	mov    edi,0x1
  400116:	68 61 67 00 00       	push   0x6761
  40011b:	48 89 e6             	mov    rsi,rsp
  40011e:	ba 02 00 00 00       	mov    edx,0x2
  400123:	0f 05                	syscall 
  400125:	b8 01 00 00 00       	mov    eax,0x1
  40012a:	bf 01 00 00 00       	mov    edi,0x1
  40012f:	6a 7b                	push   0x7b
  400131:	48 89 e6             	mov    rsi,rsp
  400134:	ba 01 00 00 00       	mov    edx,0x1
  400139:	0f 05                	syscall 
  40013b:	b8 01 00 00 00       	mov    eax,0x1
  400140:	bf 01 00 00 00       	mov    edi,0x1
  400145:	68 36 38 00 00       	push   0x3836
  40014a:	48 89 e6             	mov    rsi,rsp
  40014d:	ba 02 00 00 00       	mov    edx,0x2
  400152:	0f 05                	syscall 
  400154:	b8 01 00 00 00       	mov    eax,0x1
  400159:	bf 01 00 00 00       	mov    edi,0x1
  40015e:	68 36 35 00 00       	push   0x3536
  400163:	48 89 e6             	mov    rsi,rsp
  400166:	ba 02 00 00 00       	mov    edx,0x2
  40016b:	0f 05                	syscall 
  40016d:	b8 01 00 00 00       	mov    eax,0x1
  400172:	bf 01 00 00 00       	mov    edi,0x1
  400177:	68 37 32 00 00       	push   0x3237
  40017c:	48 89 e6             	mov    rsi,rsp
  40017f:	ba 02 00 00 00       	mov    edx,0x2
  400184:	0f 05                	syscall 
  400186:	b8 01 00 00 00       	mov    eax,0x1
  40018b:	bf 01 00 00 00       	mov    edi,0x1
  400190:	68 36 35 00 00       	push   0x3536
  400195:	48 89 e6             	mov    rsi,rsp
  400198:	ba 02 00 00 00       	mov    edx,0x2
  40019d:	0f 05                	syscall 
  40019f:	b8 01 00 00 00       	mov    eax,0x1
  4001a4:	bf 01 00 00 00       	mov    edi,0x1
  4001a9:	68 32 30 00 00       	push   0x3032
  4001ae:	48 89 e6             	mov    rsi,rsp
  4001b1:	ba 02 00 00 00       	mov    edx,0x2
  4001b6:	0f 05                	syscall 
  4001b8:	b8 01 00 00 00       	mov    eax,0x1
  4001bd:	bf 01 00 00 00       	mov    edi,0x1
  4001c2:	68 36 39 00 00       	push   0x3936
  4001c7:	48 89 e6             	mov    rsi,rsp
  4001ca:	ba 02 00 00 00       	mov    edx,0x2
  4001cf:	0f 05                	syscall 
  4001d1:	b8 01 00 00 00       	mov    eax,0x1
  4001d6:	bf 01 00 00 00       	mov    edi,0x1
  4001db:	68 37 33 00 00       	push   0x3337
  4001e0:	48 89 e6             	mov    rsi,rsp
  4001e3:	ba 02 00 00 00       	mov    edx,0x2
  4001e8:	0f 05                	syscall 
  4001ea:	b8 01 00 00 00       	mov    eax,0x1
  4001ef:	bf 01 00 00 00       	mov    edi,0x1
  4001f4:	68 32 30 00 00       	push   0x3032
  4001f9:	48 89 e6             	mov    rsi,rsp
  4001fc:	ba 02 00 00 00       	mov    edx,0x2
  400201:	0f 05                	syscall 
  400203:	b8 01 00 00 00       	mov    eax,0x1
  400208:	bf 01 00 00 00       	mov    edi,0x1
  40020d:	68 37 39 00 00       	push   0x3937
  400212:	48 89 e6             	mov    rsi,rsp
  400215:	ba 02 00 00 00       	mov    edx,0x2
  40021a:	0f 05                	syscall 
  40021c:	b8 01 00 00 00       	mov    eax,0x1
  400221:	bf 01 00 00 00       	mov    edi,0x1
  400226:	68 36 66 00 00       	push   0x6636
  40022b:	48 89 e6             	mov    rsi,rsp
  40022e:	ba 02 00 00 00       	mov    edx,0x2
  400233:	0f 05                	syscall 
  400235:	b8 01 00 00 00       	mov    eax,0x1
  40023a:	bf 01 00 00 00       	mov    edi,0x1
  40023f:	68 37 35 00 00       	push   0x3537
  400244:	48 89 e6             	mov    rsi,rsp
  400247:	ba 02 00 00 00       	mov    edx,0x2
  40024c:	0f 05                	syscall 
  40024e:	b8 01 00 00 00       	mov    eax,0x1
  400253:	bf 01 00 00 00       	mov    edi,0x1
  400258:	68 37 32 00 00       	push   0x3237
  40025d:	48 89 e6             	mov    rsi,rsp
  400260:	ba 02 00 00 00       	mov    edx,0x2
  400265:	0f 05                	syscall 
  400267:	b8 01 00 00 00       	mov    eax,0x1
  40026c:	bf 01 00 00 00       	mov    edi,0x1
  400271:	68 32 30 00 00       	push   0x3032
  400276:	48 89 e6             	mov    rsi,rsp
  400279:	ba 02 00 00 00       	mov    edx,0x2
  40027e:	0f 05                	syscall 
  400280:	b8 01 00 00 00       	mov    eax,0x1
  400285:	bf 01 00 00 00       	mov    edi,0x1
  40028a:	68 37 33 00 00       	push   0x3337
  40028f:	48 89 e6             	mov    rsi,rsp
  400292:	ba 02 00 00 00       	mov    edx,0x2
  400297:	0f 05                	syscall 
  400299:	b8 01 00 00 00       	mov    eax,0x1
  40029e:	bf 01 00 00 00       	mov    edi,0x1
  4002a3:	68 36 35 00 00       	push   0x3536
  4002a8:	48 89 e6             	mov    rsi,rsp
  4002ab:	ba 02 00 00 00       	mov    edx,0x2
  4002b0:	0f 05                	syscall 
  4002b2:	b8 01 00 00 00       	mov    eax,0x1
  4002b7:	bf 01 00 00 00       	mov    edi,0x1
  4002bc:	68 36 33 00 00       	push   0x3336
  4002c1:	48 89 e6             	mov    rsi,rsp
  4002c4:	ba 02 00 00 00       	mov    edx,0x2
  4002c9:	0f 05                	syscall 
  4002cb:	b8 01 00 00 00       	mov    eax,0x1
  4002d0:	bf 01 00 00 00       	mov    edi,0x1
  4002d5:	68 37 32 00 00       	push   0x3237
  4002da:	48 89 e6             	mov    rsi,rsp
  4002dd:	ba 02 00 00 00       	mov    edx,0x2
  4002e2:	0f 05                	syscall 
  4002e4:	b8 01 00 00 00       	mov    eax,0x1
  4002e9:	bf 01 00 00 00       	mov    edi,0x1
  4002ee:	68 36 35 00 00       	push   0x3536
  4002f3:	48 89 e6             	mov    rsi,rsp
  4002f6:	ba 02 00 00 00       	mov    edx,0x2
  4002fb:	0f 05                	syscall 
  4002fd:	b8 01 00 00 00       	mov    eax,0x1
  400302:	bf 01 00 00 00       	mov    edi,0x1
  400307:	68 37 34 00 00       	push   0x3437
  40030c:	48 89 e6             	mov    rsi,rsp
  40030f:	ba 02 00 00 00       	mov    edx,0x2
  400314:	0f 05                	syscall 
  400316:	b8 01 00 00 00       	mov    eax,0x1
  40031b:	bf 01 00 00 00       	mov    edi,0x1
  400320:	6a 7d                	push   0x7d
  400322:	48 89 e6             	mov    rsi,rsp
  400325:	ba 01 00 00 00       	mov    edx,0x1
  40032a:	0f 05                	syscall 
  40032c:	e8 b7 fd ff ff       	call   4000e8 <quit>
